target datalayout = "e-m:e-p270:32:32-p271:32:32-p272:64:64-i64:64-i128:128-f80:128-n8:16:32:64-S128"
target triple = "x86_64-pc-linux-gnu"

%"class.google::protobuf::internal::LogMessage" = type { i32, ptr, i32, %"class.std::__cxx11::basic_string" }
%"class.std::__cxx11::basic_string" = type { %"struct.std::__cxx11::basic_string<char>::_Alloc_hider", i64, %union.anon.0 }
%"struct.std::__cxx11::basic_string<char>::_Alloc_hider" = type { ptr }
%union.anon.0 = type { i64, [8 x i8] }
%"class.google::protobuf::internal::LogFinisher" = type { i8 }
%"struct.google::protobuf::internal::ExtensionSet::Extension" = type { %union.anon.4, i8, i8, i8, i8, i32, ptr }
%union.anon.4 = type { i64 }
%"class.google::protobuf::internal::RepeatedPtrFieldBase" = type { ptr, i32, i32, ptr }

@.str = private unnamed_addr constant [43 x i8] c"third_party/protobuf-lite/extension_set.cc\00", align 1
@.str.41 = private unnamed_addr constant [28 x i8] c"CHECK failed: is_repeated: \00", align 1
@.str.42 = private unnamed_addr constant [16 x i8] c"Can't get here.\00", align 1
@_ZN6google8protobuf8internal14WireFormatLite22kFieldTypeToCppTypeMapE = external constant [0 x i32], align 4
@.str.47 = private unnamed_addr constant [67 x i8] c"CHECK failed: type > 0 && type <= WireFormatLite::MAX_FIELD_TYPE: \00", align 1

; Function Attrs: mustprogress nounwind uwtable
define linkonce_odr noundef i32 @_ZNK6google8protobuf8internal20RepeatedPtrFieldBase4sizeEv(ptr noundef nonnull align 8 dereferenceable(24) %0) #4 comdat align 2 {
  %2 = alloca ptr, align 8
  store ptr %0, ptr %2, align 8
  %3 = load ptr, ptr %2, align 8
  %4 = getelementptr inbounds %"class.google::protobuf::internal::RepeatedPtrFieldBase", ptr %3, i32 0, i32 1
  %5 = load i32, ptr %4, align 8
  ret i32 %5
}

; Function Attrs: mustprogress nounwind uwtable
define linkonce_odr noundef i32 @_ZN6google8protobuf8internal14WireFormatLite18FieldTypeToCppTypeENS2_9FieldTypeE(i32 noundef %0) #4 comdat align 2 {
  %2 = alloca i32, align 4
  store i32 %0, ptr %2, align 4
  %3 = load i32, ptr %2, align 4
  %4 = zext i32 %3 to i64
  %5 = getelementptr inbounds [0 x i32], ptr @_ZN6google8protobuf8internal14WireFormatLite22kFieldTypeToCppTypeMapE, i64 0, i64 %4
  %6 = load i32, ptr %5, align 4
  ret i32 %6
}

; Function Attrs: mustprogress uwtable
define internal noundef i32 @_ZN6google8protobuf8internal12_GLOBAL__N_19real_typeEh(i8 noundef zeroext %0) #6 personality ptr @__gxx_personality_v0 {
  %2 = alloca i8, align 1
  %3 = alloca %"class.google::protobuf::internal::LogMessage", align 8
  %4 = alloca i1, align 1
  %5 = alloca ptr, align 8
  %6 = alloca i32, align 4
  %7 = alloca %"class.google::protobuf::internal::LogFinisher", align 1
  store i8 %0, ptr %2, align 1
  br label %8

8:                                                ; preds = %25, %1
  br i1 false, label %9, label %33

9:                                                ; preds = %8
  %10 = load i8, ptr %2, align 1
  %11 = zext i8 %10 to i32
  %12 = icmp sgt i32 %11, 0
  store i1 false, ptr %4, align 1
  br i1 %12, label %13, label %18

13:                                               ; preds = %9
  %14 = load i8, ptr %2, align 1
  %15 = zext i8 %14 to i32
  %16 = icmp sle i32 %15, 18
  br i1 %16, label %17, label %18

17:                                               ; preds = %13
  br label %22

18:                                               ; preds = %13, %9
  call void @_ZN6google8protobuf8internal10LogMessageC1ENS0_8LogLevelEPKci(ptr noundef nonnull align 8 dereferenceable(56) %3, i32 noundef 3, ptr noundef @.str, i32 noundef 60)
  store i1 true, ptr %4, align 1
  %19 = invoke noundef nonnull align 8 dereferenceable(56) ptr @_ZN6google8protobuf8internal10LogMessagelsEPKc(ptr noundef nonnull align 8 dereferenceable(56) %3, ptr noundef @.str.47)
          to label %20 unwind label %26

20:                                               ; preds = %18
  invoke void @_ZN6google8protobuf8internal11LogFinisheraSERNS1_10LogMessageE(ptr noundef nonnull align 1 dereferenceable(1) %7, ptr noundef nonnull align 8 dereferenceable(56) %19)
          to label %21 unwind label %26

21:                                               ; preds = %20
  br label %22

22:                                               ; preds = %21, %17
  %23 = load i1, ptr %4, align 1
  br i1 %23, label %24, label %25

24:                                               ; preds = %22
  call void @_ZN6google8protobuf8internal10LogMessageD1Ev(ptr noundef nonnull align 8 dereferenceable(56) %3) #3
  br label %25

25:                                               ; preds = %24, %22
  br label %8, !llvm.loop !163

26:                                               ; preds = %20, %18
  %27 = landingpad { ptr, i32 }
          cleanup
  %28 = extractvalue { ptr, i32 } %27, 0
  store ptr %28, ptr %5, align 8
  %29 = extractvalue { ptr, i32 } %27, 1
  store i32 %29, ptr %6, align 4
  %30 = load i1, ptr %4, align 1
  br i1 %30, label %31, label %32

31:                                               ; preds = %26
  call void @_ZN6google8protobuf8internal10LogMessageD1Ev(ptr noundef nonnull align 8 dereferenceable(56) %3) #3
  br label %32

32:                                               ; preds = %31, %26
  br label %36

33:                                               ; preds = %8
  %34 = load i8, ptr %2, align 1
  %35 = zext i8 %34 to i32
  ret i32 %35

36:                                               ; preds = %32
  %37 = load ptr, ptr %5, align 8
  %38 = load i32, ptr %6, align 4
  %39 = insertvalue { ptr, i32 } poison, ptr %37, 0
  %40 = insertvalue { ptr, i32 } %39, i32 %38, 1
  resume { ptr, i32 } %40
}

; Function Attrs: mustprogress uwtable
define linkonce_odr noundef i32 @_ZNK6google8protobuf16RepeatedPtrFieldINS0_11MessageLiteEE4sizeEv(ptr noundef nonnull align 8 dereferenceable(24) %0) #6 comdat align 2 {
  %2 = alloca ptr, align 8
  store ptr %0, ptr %2, align 8
  %3 = load ptr, ptr %2, align 8
  %4 = call noundef i32 @_ZNK6google8protobuf8internal20RepeatedPtrFieldBase4sizeEv(ptr noundef nonnull align 8 dereferenceable(24) %3)
  ret i32 %4
}

; Function Attrs: mustprogress uwtable
define internal noundef i32 @_ZN6google8protobuf8internal12_GLOBAL__N_18cpp_typeEh(i8 noundef zeroext %0) #6 {
  %2 = alloca i8, align 1
  store i8 %0, ptr %2, align 1
  %3 = load i8, ptr %2, align 1
  %4 = call noundef i32 @_ZN6google8protobuf8internal12_GLOBAL__N_19real_typeEh(i8 noundef zeroext %3)
  %5 = call noundef i32 @_ZN6google8protobuf8internal14WireFormatLite18FieldTypeToCppTypeENS2_9FieldTypeE(i32 noundef %4)
  ret i32 %5
}

; Function Attrs: mustprogress uwtable
define noundef i32 @_ZNK6google8protobuf8internal12ExtensionSet9Extension7GetSizeEv(ptr noundef nonnull align 8 dereferenceable(24) %0) #6 align 2 personality ptr @__gxx_personality_v0 {
  %2 = alloca i32, align 4
  %3 = alloca ptr, align 8
  %4 = alloca %"class.google::protobuf::internal::LogMessage", align 8
  %5 = alloca i1, align 1
  %6 = alloca ptr, align 8
  %7 = alloca i32, align 4
  %8 = alloca %"class.google::protobuf::internal::LogFinisher", align 1
  %9 = alloca %"class.google::protobuf::internal::LogMessage", align 8
  %10 = alloca %"class.google::protobuf::internal::LogFinisher", align 1
  store ptr %0, ptr %3, align 8
  %11 = load ptr, ptr %3, align 8
  br label %12

12:                                               ; preds = %25, %1
  br i1 false, label %13, label %33

13:                                               ; preds = %12
  %14 = getelementptr inbounds %"struct.google::protobuf::internal::ExtensionSet::Extension", ptr %11, i32 0, i32 2
  %15 = load i8, ptr %14, align 1
  %16 = trunc i8 %15 to i1
  store i1 false, ptr %5, align 1
  br i1 %16, label %17, label %18

17:                                               ; preds = %13
  br label %22

18:                                               ; preds = %13
  call void @_ZN6google8protobuf8internal10LogMessageC1ENS0_8LogLevelEPKci(ptr noundef nonnull align 8 dereferenceable(56) %4, i32 noundef 3, ptr noundef @.str, i32 noundef 1700)
  store i1 true, ptr %5, align 1
  %19 = invoke noundef nonnull align 8 dereferenceable(56) ptr @_ZN6google8protobuf8internal10LogMessagelsEPKc(ptr noundef nonnull align 8 dereferenceable(56) %4, ptr noundef @.str.41)
          to label %20 unwind label %26

20:                                               ; preds = %18
  invoke void @_ZN6google8protobuf8internal11LogFinisheraSERNS1_10LogMessageE(ptr noundef nonnull align 1 dereferenceable(1) %8, ptr noundef nonnull align 8 dereferenceable(56) %19)
          to label %21 unwind label %26

21:                                               ; preds = %20
  br label %22

22:                                               ; preds = %21, %17
  %23 = load i1, ptr %5, align 1
  br i1 %23, label %24, label %25

24:                                               ; preds = %22
  call void @_ZN6google8protobuf8internal10LogMessageD1Ev(ptr noundef nonnull align 8 dereferenceable(56) %4) #3
  br label %25

25:                                               ; preds = %24, %22
  br label %12, !llvm.loop !7

26:                                               ; preds = %20, %18
  %27 = landingpad { ptr, i32 }
          cleanup
  %28 = extractvalue { ptr, i32 } %27, 0
  store ptr %28, ptr %6, align 8
  %29 = extractvalue { ptr, i32 } %27, 1
  store i32 %29, ptr %7, align 4
  %30 = load i1, ptr %5, align 1
  br i1 %30, label %31, label %32

31:                                               ; preds = %26
  call void @_ZN6google8protobuf8internal10LogMessageD1Ev(ptr noundef nonnull align 8 dereferenceable(56) %4) #3
  br label %32

32:                                               ; preds = %31, %26
  br label %87

33:                                               ; preds = %12
  %34 = getelementptr inbounds %"struct.google::protobuf::internal::ExtensionSet::Extension", ptr %11, i32 0, i32 1
  %35 = load i8, ptr %34, align 8
  %36 = call noundef i32 @_ZN6google8protobuf8internal12_GLOBAL__N_18cpp_typeEh(i8 noundef zeroext %35)
  switch i32 %36, label %77 [
    i32 1, label %37
    i32 2, label %41
    i32 3, label %45
    i32 4, label %49
    i32 6, label %53
    i32 5, label %57
    i32 7, label %61
    i32 8, label %65
    i32 9, label %69
    i32 10, label %73
  ]

37:                                               ; preds = %33
  %38 = getelementptr inbounds %"struct.google::protobuf::internal::ExtensionSet::Extension", ptr %11, i32 0, i32 0
  %39 = load ptr, ptr %38, align 8
  %40 = call noundef i32 @_ZNK6google8protobuf13RepeatedFieldIiE4sizeEv(ptr noundef nonnull align 8 dereferenceable(16) %39)
  store i32 %40, ptr %2, align 4
  br label %85

41:                                               ; preds = %33
  %42 = getelementptr inbounds %"struct.google::protobuf::internal::ExtensionSet::Extension", ptr %11, i32 0, i32 0
  %43 = load ptr, ptr %42, align 8
  %44 = call noundef i32 @_ZNK6google8protobuf13RepeatedFieldIlE4sizeEv(ptr noundef nonnull align 8 dereferenceable(16) %43)
  store i32 %44, ptr %2, align 4
  br label %85

45:                                               ; preds = %33
  %46 = getelementptr inbounds %"struct.google::protobuf::internal::ExtensionSet::Extension", ptr %11, i32 0, i32 0
  %47 = load ptr, ptr %46, align 8
  %48 = call noundef i32 @_ZNK6google8protobuf13RepeatedFieldIjE4sizeEv(ptr noundef nonnull align 8 dereferenceable(16) %47)
  store i32 %48, ptr %2, align 4
  br label %85

49:                                               ; preds = %33
  %50 = getelementptr inbounds %"struct.google::protobuf::internal::ExtensionSet::Extension", ptr %11, i32 0, i32 0
  %51 = load ptr, ptr %50, align 8
  %52 = call noundef i32 @_ZNK6google8protobuf13RepeatedFieldImE4sizeEv(ptr noundef nonnull align 8 dereferenceable(16) %51)
  store i32 %52, ptr %2, align 4
  br label %85

53:                                               ; preds = %33
  %54 = getelementptr inbounds %"struct.google::protobuf::internal::ExtensionSet::Extension", ptr %11, i32 0, i32 0
  %55 = load ptr, ptr %54, align 8
  %56 = call noundef i32 @_ZNK6google8protobuf13RepeatedFieldIfE4sizeEv(ptr noundef nonnull align 8 dereferenceable(16) %55)
  store i32 %56, ptr %2, align 4
  br label %85

57:                                               ; preds = %33
  %58 = getelementptr inbounds %"struct.google::protobuf::internal::ExtensionSet::Extension", ptr %11, i32 0, i32 0
  %59 = load ptr, ptr %58, align 8
  %60 = call noundef i32 @_ZNK6google8protobuf13RepeatedFieldIdE4sizeEv(ptr noundef nonnull align 8 dereferenceable(16) %59)
  store i32 %60, ptr %2, align 4
  br label %85

61:                                               ; preds = %33
  %62 = getelementptr inbounds %"struct.google::protobuf::internal::ExtensionSet::Extension", ptr %11, i32 0, i32 0
  %63 = load ptr, ptr %62, align 8
  %64 = call noundef i32 @_ZNK6google8protobuf13RepeatedFieldIbE4sizeEv(ptr noundef nonnull align 8 dereferenceable(16) %63)
  store i32 %64, ptr %2, align 4
  br label %85

65:                                               ; preds = %33
  %66 = getelementptr inbounds %"struct.google::protobuf::internal::ExtensionSet::Extension", ptr %11, i32 0, i32 0
  %67 = load ptr, ptr %66, align 8
  %68 = call noundef i32 @_ZNK6google8protobuf13RepeatedFieldIiE4sizeEv(ptr noundef nonnull align 8 dereferenceable(16) %67)
  store i32 %68, ptr %2, align 4
  br label %85

69:                                               ; preds = %33
  %70 = getelementptr inbounds %"struct.google::protobuf::internal::ExtensionSet::Extension", ptr %11, i32 0, i32 0
  %71 = load ptr, ptr %70, align 8
  %72 = call noundef i32 @_ZNK6google8protobuf16RepeatedPtrFieldINSt7__cxx1112basic_stringIcSt11char_traitsIcESaIcEEEE4sizeEv(ptr noundef nonnull align 8 dereferenceable(24) %71)
  store i32 %72, ptr %2, align 4
  br label %85

73:                                               ; preds = %33
  %74 = getelementptr inbounds %"struct.google::protobuf::internal::ExtensionSet::Extension", ptr %11, i32 0, i32 0
  %75 = load ptr, ptr %74, align 8
  %76 = call noundef i32 @_ZNK6google8protobuf16RepeatedPtrFieldINS0_11MessageLiteEE4sizeEv(ptr noundef nonnull align 8 dereferenceable(24) %75)
  store i32 %76, ptr %2, align 4
  br label %85

77:                                               ; preds = %33
  call void @_ZN6google8protobuf8internal10LogMessageC1ENS0_8LogLevelEPKci(ptr noundef nonnull align 8 dereferenceable(56) %9, i32 noundef 3, ptr noundef @.str, i32 noundef 1719)
  %78 = invoke noundef nonnull align 8 dereferenceable(56) ptr @_ZN6google8protobuf8internal10LogMessagelsEPKc(ptr noundef nonnull align 8 dereferenceable(56) %9, ptr noundef @.str.42)
          to label %79 unwind label %81

79:                                               ; preds = %77
  invoke void @_ZN6google8protobuf8internal11LogFinisheraSERNS1_10LogMessageE(ptr noundef nonnull align 1 dereferenceable(1) %10, ptr noundef nonnull align 8 dereferenceable(56) %78)
          to label %80 unwind label %81

80:                                               ; preds = %79
  call void @_ZN6google8protobuf8internal10LogMessageD1Ev(ptr noundef nonnull align 8 dereferenceable(56) %9) #3
  store i32 0, ptr %2, align 4
  br label %85

81:                                               ; preds = %79, %77
  %82 = landingpad { ptr, i32 }
          cleanup
  %83 = extractvalue { ptr, i32 } %82, 0
  store ptr %83, ptr %6, align 8
  %84 = extractvalue { ptr, i32 } %82, 1
  store i32 %84, ptr %7, align 4
  call void @_ZN6google8protobuf8internal10LogMessageD1Ev(ptr noundef nonnull align 8 dereferenceable(56) %9) #3
  br label %87

85:                                               ; preds = %80, %73, %69, %65, %61, %57, %53, %49, %45, %41, %37
  %86 = load i32, ptr %2, align 4
  ret i32 %86

87:                                               ; preds = %81, %32
  %88 = load ptr, ptr %6, align 8
  %89 = load i32, ptr %7, align 4
  %90 = insertvalue { ptr, i32 } poison, ptr %88, 0
  %91 = insertvalue { ptr, i32 } %90, i32 %89, 1
  resume { ptr, i32 } %91
}