; Function Attrs: mustprogress uwtable
define noundef i32 @_ZNK6google8protobuf8internal12ExtensionSet9Extension7GetSizeEv(ptr nocapture noundef nonnull readonly align 8 dereferenceable(24) %0) local_unnamed_addr #8 align 2 personality ptr @__gxx_personality_v0 {
  %2 = alloca %"class.google::protobuf::internal::LogMessage", align 8
  %3 = alloca %"class.google::protobuf::internal::LogFinisher", align 1
  %4 = getelementptr inbounds i8, ptr %0, i64 8
  %5 = load i8, ptr %4, align 8
  %6 = zext i8 %5 to i64
  %7 = getelementptr inbounds [0 x i32], ptr @_ZN6google8protobuf8internal14WireFormatLite22kFieldTypeToCppTypeMapE, i64 0, i64 %6
  %8 = load i32, ptr %7, align 4
  switch i32 %8, label %40 [
    i32 1, label %9
    i32 2, label %12
    i32 3, label %15
    i32 4, label %18
    i32 6, label %21
    i32 5, label %24
    i32 7, label %27
    i32 8, label %30
    i32 9, label %33
    i32 10, label %36
  ]

9:                                                ; preds = %1
  %10 = load ptr, ptr %0, align 8
  %11 = tail call noundef i32 @_ZNK6google8protobuf13RepeatedFieldIiE4sizeEv(ptr noundef nonnull align 8 dereferenceable(16) %10)
  br label %46

12:                                               ; preds = %1
  %13 = load ptr, ptr %0, align 8
  %14 = tail call noundef i32 @_ZNK6google8protobuf13RepeatedFieldIlE4sizeEv(ptr noundef nonnull align 8 dereferenceable(16) %13)
  br label %46

15:                                               ; preds = %1
  %16 = load ptr, ptr %0, align 8
  %17 = tail call noundef i32 @_ZNK6google8protobuf13RepeatedFieldIjE4sizeEv(ptr noundef nonnull align 8 dereferenceable(16) %16)
  br label %46

18:                                               ; preds = %1
  %19 = load ptr, ptr %0, align 8
  %20 = tail call noundef i32 @_ZNK6google8protobuf13RepeatedFieldImE4sizeEv(ptr noundef nonnull align 8 dereferenceable(16) %19)
  br label %46

21:                                               ; preds = %1
  %22 = load ptr, ptr %0, align 8
  %23 = tail call noundef i32 @_ZNK6google8protobuf13RepeatedFieldIfE4sizeEv(ptr noundef nonnull align 8 dereferenceable(16) %22)
  br label %46

24:                                               ; preds = %1
  %25 = load ptr, ptr %0, align 8
  %26 = tail call noundef i32 @_ZNK6google8protobuf13RepeatedFieldIdE4sizeEv(ptr noundef nonnull align 8 dereferenceable(16) %25)
  br label %46

27:                                               ; preds = %1
  %28 = load ptr, ptr %0, align 8
  %29 = tail call noundef i32 @_ZNK6google8protobuf13RepeatedFieldIbE4sizeEv(ptr noundef nonnull align 8 dereferenceable(16) %28)
  br label %46

30:                                               ; preds = %1
  %31 = load ptr, ptr %0, align 8
  %32 = tail call noundef i32 @_ZNK6google8protobuf13RepeatedFieldIiE4sizeEv(ptr noundef nonnull align 8 dereferenceable(16) %31)
  br label %46

33:                                               ; preds = %1
  %34 = load ptr, ptr %0, align 8
  %35 = tail call noundef i32 @_ZNK6google8protobuf16RepeatedPtrFieldINSt7__cxx1112basic_stringIcSt11char_traitsIcESaIcEEEE4sizeEv(ptr noundef nonnull align 8 dereferenceable(24) %34)
  br label %46

36:                                               ; preds = %1
  %37 = load ptr, ptr %0, align 8
  %38 = getelementptr inbounds i8, ptr %37, i64 8
  %39 = load i32, ptr %38, align 8
  br label %46

40:                                               ; preds = %1
  call void @_ZN6google8protobuf8internal10LogMessageC1ENS0_8LogLevelEPKci(ptr noundef nonnull align 8 dereferenceable(56) %2, i32 noundef 3, ptr noundef nonnull @.str, i32 noundef 1719)
  %41 = invoke noundef nonnull align 8 dereferenceable(56) ptr @_ZN6google8protobuf8internal10LogMessagelsEPKc(ptr noundef nonnull align 8 dereferenceable(56) %2, ptr noundef nonnull @.str.42)
          to label %42 unwind label %44

42:                                               ; preds = %40
  invoke void @_ZN6google8protobuf8internal11LogFinisheraSERNS1_10LogMessageE(ptr noundef nonnull align 1 dereferenceable(1) %3, ptr noundef nonnull align 8 dereferenceable(56) %41)
          to label %43 unwind label %44

43:                                               ; preds = %42
  call void @_ZN6google8protobuf8internal10LogMessageD1Ev(ptr noundef nonnull align 8 dereferenceable(56) %2) #23
  br label %46

44:                                               ; preds = %42, %40
  %45 = landingpad { ptr, i32 }
          cleanup
  call void @_ZN6google8protobuf8internal10LogMessageD1Ev(ptr noundef nonnull align 8 dereferenceable(56) %2) #23
  resume { ptr, i32 } %45

46:                                               ; preds = %43, %36, %33, %30, %27, %24, %21, %18, %15, %12, %9
  %.0 = phi i32 [ 0, %43 ], [ %39, %36 ], [ %35, %33 ], [ %32, %30 ], [ %29, %27 ], [ %26, %24 ], [ %23, %21 ], [ %20, %18 ], [ %17, %15 ], [ %14, %12 ], [ %11, %9 ]
  ret i32 %.0
}